target datalayout = "e-m:e-p270:32:32-p271:32:32-p272:64:64-i64:64-i128:128-f80:128-n8:16:32:64-S128"
target triple = "x86_64-pc-linux-gnu"

%struct.Abc_Obj_t_ = type { ptr, ptr, i32, i32, %struct.Vec_Int_t_, %struct.Vec_Int_t_, %union.anon, %union.anon.0 }
%struct.Vec_Int_t_ = type { i32, i32, ptr }
%union.anon = type { ptr }
%union.anon.0 = type { ptr }
%struct.Abc_ManScl_t_ = type { i32, i32, i32, i32, ptr, ptr, [15 x i32], ptr, ptr, ptr, ptr }
%struct.Abc_Ntk_t_ = type { i32, i32, ptr, ptr, ptr, ptr, ptr, ptr, ptr, ptr, ptr, ptr, ptr, [11 x i32], i32, i32, i32, i32, ptr, i32, ptr, ptr, i32, i32, i32, double, i32, %struct.Vec_Int_t_, ptr, ptr, ptr, ptr, ptr, float, i32, ptr, ptr, ptr, ptr, ptr, ptr, ptr, ptr, ptr, ptr, ptr, ptr, ptr, ptr, ptr, ptr, ptr, ptr, ptr, ptr, ptr, ptr }
%struct.Vec_Ptr_t_ = type { i32, i32, ptr }

; Function Attrs: inlinehint nounwind uwtable
define internal ptr @Abc_ObjFanin1(ptr noundef %0) #3 {
  %2 = alloca ptr, align 8
  store ptr %0, ptr %2, align 8, !tbaa !10
  %3 = load ptr, ptr %2, align 8, !tbaa !10
  %4 = getelementptr inbounds nuw %struct.Abc_Obj_t_, ptr %3, i32 0, i32 0
  %5 = load ptr, ptr %4, align 8, !tbaa !82
  %6 = getelementptr inbounds nuw %struct.Abc_Ntk_t_, ptr %5, i32 0, i32 5
  %7 = load ptr, ptr %6, align 8, !tbaa !30
  %8 = getelementptr inbounds nuw %struct.Vec_Ptr_t_, ptr %7, i32 0, i32 2
  %9 = load ptr, ptr %8, align 8, !tbaa !93
  %10 = load ptr, ptr %2, align 8, !tbaa !10
  %11 = getelementptr inbounds nuw %struct.Abc_Obj_t_, ptr %10, i32 0, i32 4
  %12 = getelementptr inbounds nuw %struct.Vec_Int_t_, ptr %11, i32 0, i32 2
  %13 = load ptr, ptr %12, align 8, !tbaa !94
  %14 = getelementptr inbounds i32, ptr %13, i64 1
  %15 = load i32, ptr %14, align 4, !tbaa !8
  %16 = sext i32 %15 to i64
  %17 = getelementptr inbounds ptr, ptr %9, i64 %16
  %18 = load ptr, ptr %17, align 8, !tbaa !95
  ret ptr %18
}

; Function Attrs: inlinehint nounwind uwtable
define internal ptr @Abc_ObjFanin0(ptr noundef %0) #3 {
  %2 = alloca ptr, align 8
  store ptr %0, ptr %2, align 8, !tbaa !10
  %3 = load ptr, ptr %2, align 8, !tbaa !10
  %4 = getelementptr inbounds nuw %struct.Abc_Obj_t_, ptr %3, i32 0, i32 0
  %5 = load ptr, ptr %4, align 8, !tbaa !82
  %6 = getelementptr inbounds nuw %struct.Abc_Ntk_t_, ptr %5, i32 0, i32 5
  %7 = load ptr, ptr %6, align 8, !tbaa !30
  %8 = getelementptr inbounds nuw %struct.Vec_Ptr_t_, ptr %7, i32 0, i32 2
  %9 = load ptr, ptr %8, align 8, !tbaa !93
  %10 = load ptr, ptr %2, align 8, !tbaa !10
  %11 = getelementptr inbounds nuw %struct.Abc_Obj_t_, ptr %10, i32 0, i32 4
  %12 = getelementptr inbounds nuw %struct.Vec_Int_t_, ptr %11, i32 0, i32 2
  %13 = load ptr, ptr %12, align 8, !tbaa !94
  %14 = getelementptr inbounds i32, ptr %13, i64 0
  %15 = load i32, ptr %14, align 4, !tbaa !8
  %16 = sext i32 %15 to i64
  %17 = getelementptr inbounds ptr, ptr %9, i64 %16
  %18 = load ptr, ptr %17, align 8, !tbaa !95
  ret ptr %18
}

; Function Attrs: inlinehint nounwind uwtable
define internal ptr @Vec_PtrEntry(ptr noundef %0, i32 noundef %1) #3 {
  %3 = alloca ptr, align 8
  %4 = alloca i32, align 4
  store ptr %0, ptr %3, align 8, !tbaa !20
  store i32 %1, ptr %4, align 4, !tbaa !8
  %5 = load ptr, ptr %3, align 8, !tbaa !20
  %6 = getelementptr inbounds nuw %struct.Vec_Ptr_t_, ptr %5, i32 0, i32 2
  %7 = load ptr, ptr %6, align 8, !tbaa !93
  %8 = load i32, ptr %4, align 4, !tbaa !8
  %9 = sext i32 %8 to i64
  %10 = getelementptr inbounds ptr, ptr %7, i64 %9
  %11 = load ptr, ptr %10, align 8, !tbaa !95
  ret ptr %11
}

; Function Attrs: inlinehint nounwind uwtable
define internal i32 @Vec_PtrSize(ptr noundef %0) #3 {
  %2 = alloca ptr, align 8
  store ptr %0, ptr %2, align 8, !tbaa !20
  %3 = load ptr, ptr %2, align 8, !tbaa !20
  %4 = getelementptr inbounds nuw %struct.Vec_Ptr_t_, ptr %3, i32 0, i32 1
  %5 = load i32, ptr %4, align 4, !tbaa !74
  ret i32 %5
}

; Function Attrs: nounwind uwtable
define ptr @Abc_NodeSuperChoiceTruth(ptr noundef %0) #0 {
  %2 = alloca ptr, align 8
  %3 = alloca ptr, align 8
  %4 = alloca ptr, align 8
  %5 = alloca ptr, align 8
  %6 = alloca ptr, align 8
  %7 = alloca ptr, align 8
  %8 = alloca i32, align 4
  %9 = alloca i32, align 4
  store ptr %0, ptr %2, align 8, !tbaa !14
  call void @llvm.lifetime.start.p0(i64 8, ptr %3) #9
  call void @llvm.lifetime.start.p0(i64 8, ptr %4) #9
  call void @llvm.lifetime.start.p0(i64 8, ptr %5) #9
  call void @llvm.lifetime.start.p0(i64 8, ptr %6) #9
  store ptr null, ptr %6, align 8, !tbaa !58
  call void @llvm.lifetime.start.p0(i64 8, ptr %7) #9
  call void @llvm.lifetime.start.p0(i64 4, ptr %8) #9
  call void @llvm.lifetime.start.p0(i64 4, ptr %9) #9
  store i32 0, ptr %8, align 4, !tbaa !8
  br label %10

10:                                               ; preds = %35, %1
  %11 = load i32, ptr %8, align 4, !tbaa !8
  %12 = load ptr, ptr %2, align 8, !tbaa !14
  %13 = getelementptr inbounds nuw %struct.Abc_ManScl_t_, ptr %12, i32 0, i32 4
  %14 = load ptr, ptr %13, align 8, !tbaa !44
  %15 = call i32 @Vec_PtrSize(ptr noundef %14)
  %16 = icmp slt i32 %11, %15
  br i1 %16, label %17, label %23

17:                                               ; preds = %10
  %18 = load ptr, ptr %2, align 8, !tbaa !14
  %19 = getelementptr inbounds nuw %struct.Abc_ManScl_t_, ptr %18, i32 0, i32 4
  %20 = load ptr, ptr %19, align 8, !tbaa !44
  %21 = load i32, ptr %8, align 4, !tbaa !8
  %22 = call ptr @Vec_PtrEntry(ptr noundef %20, i32 noundef %21)
  store ptr %22, ptr %3, align 8, !tbaa !10
  br label %23

23:                                               ; preds = %17, %10
  %24 = phi i1 [ false, %10 ], [ true, %17 ]
  br i1 %24, label %25, label %38

25:                                               ; preds = %23
  %26 = load ptr, ptr %2, align 8, !tbaa !14
  %27 = getelementptr inbounds nuw %struct.Abc_ManScl_t_, ptr %26, i32 0, i32 8
  %28 = load ptr, ptr %27, align 8, !tbaa !55
  %29 = load i32, ptr %8, align 4, !tbaa !8
  %30 = sext i32 %29 to i64
  %31 = getelementptr inbounds ptr, ptr %28, i64 %30
  %32 = load ptr, ptr %31, align 8, !tbaa !58
  %33 = load ptr, ptr %3, align 8, !tbaa !10
  %34 = getelementptr inbounds nuw %struct.Abc_Obj_t_, ptr %33, i32 0, i32 1
  store ptr %32, ptr %34, align 8, !tbaa !47
  br label %35

35:                                               ; preds = %25
  %36 = load i32, ptr %8, align 4, !tbaa !8
  %37 = add nsw i32 %36, 1
  store i32 %37, ptr %8, align 4, !tbaa !8
  br label %10, !llvm.loop !96

38:                                               ; preds = %23
  store i32 0, ptr %8, align 4, !tbaa !8
  br label %39

39:                                               ; preds = %216, %38
  %40 = load i32, ptr %8, align 4, !tbaa !8
  %41 = load ptr, ptr %2, align 8, !tbaa !14
  %42 = getelementptr inbounds nuw %struct.Abc_ManScl_t_, ptr %41, i32 0, i32 5
  %43 = load ptr, ptr %42, align 8, !tbaa !22
  %44 = call i32 @Vec_PtrSize(ptr noundef %43)
  %45 = icmp slt i32 %40, %44
  br i1 %45, label %46, label %52

46:                                               ; preds = %39
  %47 = load ptr, ptr %2, align 8, !tbaa !14
  %48 = getelementptr inbounds nuw %struct.Abc_ManScl_t_, ptr %47, i32 0, i32 5
  %49 = load ptr, ptr %48, align 8, !tbaa !22
  %50 = load i32, ptr %8, align 4, !tbaa !8
  %51 = call ptr @Vec_PtrEntry(ptr noundef %49, i32 noundef %50)
  store ptr %51, ptr %3, align 8, !tbaa !10
  br label %52

52:                                               ; preds = %46, %39
  %53 = phi i1 [ false, %39 ], [ true, %46 ]
  br i1 %53, label %54, label %219

54:                                               ; preds = %52
  %55 = load ptr, ptr %2, align 8, !tbaa !14
  %56 = getelementptr inbounds nuw %struct.Abc_ManScl_t_, ptr %55, i32 0, i32 9
  %57 = load ptr, ptr %56, align 8, !tbaa !56
  %58 = load i32, ptr %8, align 4, !tbaa !8
  %59 = sext i32 %58 to i64
  %60 = getelementptr inbounds ptr, ptr %57, i64 %59
  %61 = load ptr, ptr %60, align 8, !tbaa !58
  %62 = load ptr, ptr %3, align 8, !tbaa !10
  %63 = getelementptr inbounds nuw %struct.Abc_Obj_t_, ptr %62, i32 0, i32 1
  store ptr %61, ptr %63, align 8, !tbaa !47
  %64 = load ptr, ptr %3, align 8, !tbaa !10
  %65 = getelementptr inbounds nuw %struct.Abc_Obj_t_, ptr %64, i32 0, i32 1
  %66 = load ptr, ptr %65, align 8, !tbaa !47
  store ptr %66, ptr %6, align 8, !tbaa !58
  %67 = load ptr, ptr %3, align 8, !tbaa !10
  %68 = call ptr @Abc_ObjFanin0(ptr noundef %67)
  %69 = getelementptr inbounds nuw %struct.Abc_Obj_t_, ptr %68, i32 0, i32 1
  %70 = load ptr, ptr %69, align 8, !tbaa !47
  store ptr %70, ptr %4, align 8, !tbaa !58
  %71 = load ptr, ptr %3, align 8, !tbaa !10
  %72 = call ptr @Abc_ObjFanin1(ptr noundef %71)
  %73 = getelementptr inbounds nuw %struct.Abc_Obj_t_, ptr %72, i32 0, i32 1
  %74 = load ptr, ptr %73, align 8, !tbaa !47
  store ptr %74, ptr %5, align 8, !tbaa !58
  %75 = load ptr, ptr %3, align 8, !tbaa !10
  %76 = getelementptr inbounds nuw %struct.Abc_Obj_t_, ptr %75, i32 0, i32 6
  %77 = load ptr, ptr %76, align 8, !tbaa !91
  store ptr %77, ptr %7, align 8, !tbaa !76
  %78 = load ptr, ptr %7, align 8, !tbaa !76
  %79 = getelementptr inbounds i8, ptr %78, i64 0
  %80 = load i8, ptr %79, align 1, !tbaa !91
  %81 = sext i8 %80 to i32
  %82 = icmp eq i32 %81, 48
  br i1 %82, label %83, label %118

83:                                               ; preds = %54
  %84 = load ptr, ptr %7, align 8, !tbaa !76
  %85 = getelementptr inbounds i8, ptr %84, i64 1
  %86 = load i8, ptr %85, align 1, !tbaa !91
  %87 = sext i8 %86 to i32
  %88 = icmp eq i32 %87, 48
  br i1 %88, label %89, label %118

89:                                               ; preds = %83
  store i32 0, ptr %9, align 4, !tbaa !8
  br label %90

90:                                               ; preds = %114, %89
  %91 = load i32, ptr %9, align 4, !tbaa !8
  %92 = load ptr, ptr %2, align 8, !tbaa !14
  %93 = getelementptr inbounds nuw %struct.Abc_ManScl_t_, ptr %92, i32 0, i32 3
  %94 = load i32, ptr %93, align 4, !tbaa !54
  %95 = icmp slt i32 %91, %94
  br i1 %95, label %96, label %117

96:                                               ; preds = %90
  %97 = load ptr, ptr %4, align 8, !tbaa !58
  %98 = load i32, ptr %9, align 4, !tbaa !8
  %99 = sext i32 %98 to i64
  %100 = getelementptr inbounds i32, ptr %97, i64 %99
  %101 = load i32, ptr %100, align 4, !tbaa !8
  %102 = xor i32 %101, -1
  %103 = load ptr, ptr %5, align 8, !tbaa !58
  %104 = load i32, ptr %9, align 4, !tbaa !8
  %105 = sext i32 %104 to i64
  %106 = getelementptr inbounds i32, ptr %103, i64 %105
  %107 = load i32, ptr %106, align 4, !tbaa !8
  %108 = xor i32 %107, -1
  %109 = and i32 %102, %108
  %110 = load ptr, ptr %6, align 8, !tbaa !58
  %111 = load i32, ptr %9, align 4, !tbaa !8
  %112 = sext i32 %111 to i64
  %113 = getelementptr inbounds i32, ptr %110, i64 %112
  store i32 %109, ptr %113, align 4, !tbaa !8
  br label %114

114:                                              ; preds = %96
  %115 = load i32, ptr %9, align 4, !tbaa !8
  %116 = add nsw i32 %115, 1
  store i32 %116, ptr %9, align 4, !tbaa !8
  br label %90, !llvm.loop !97

117:                                              ; preds = %90
  br label %215

118:                                              ; preds = %83, %54
  %119 = load ptr, ptr %7, align 8, !tbaa !76
  %120 = getelementptr inbounds i8, ptr %119, i64 0
  %121 = load i8, ptr %120, align 1, !tbaa !91
  %122 = sext i8 %121 to i32
  %123 = icmp eq i32 %122, 48
  br i1 %123, label %124, label %152

124:                                              ; preds = %118
  store i32 0, ptr %9, align 4, !tbaa !8
  br label %125

125:                                              ; preds = %148, %124
  %126 = load i32, ptr %9, align 4, !tbaa !8
  %127 = load ptr, ptr %2, align 8, !tbaa !14
  %128 = getelementptr inbounds nuw %struct.Abc_ManScl_t_, ptr %127, i32 0, i32 3
  %129 = load i32, ptr %128, align 4, !tbaa !54
  %130 = icmp slt i32 %126, %129
  br i1 %130, label %131, label %151

131:                                              ; preds = %125
  %132 = load ptr, ptr %4, align 8, !tbaa !58
  %133 = load i32, ptr %9, align 4, !tbaa !8
  %134 = sext i32 %133 to i64
  %135 = getelementptr inbounds i32, ptr %132, i64 %134
  %136 = load i32, ptr %135, align 4, !tbaa !8
  %137 = xor i32 %136, -1
  %138 = load ptr, ptr %5, align 8, !tbaa !58
  %139 = load i32, ptr %9, align 4, !tbaa !8
  %140 = sext i32 %139 to i64
  %141 = getelementptr inbounds i32, ptr %138, i64 %140
  %142 = load i32, ptr %141, align 4, !tbaa !8
  %143 = and i32 %137, %142
  %144 = load ptr, ptr %6, align 8, !tbaa !58
  %145 = load i32, ptr %9, align 4, !tbaa !8
  %146 = sext i32 %145 to i64
  %147 = getelementptr inbounds i32, ptr %144, i64 %146
  store i32 %143, ptr %147, align 4, !tbaa !8
  br label %148

148:                                              ; preds = %131
  %149 = load i32, ptr %9, align 4, !tbaa !8
  %150 = add nsw i32 %149, 1
  store i32 %150, ptr %9, align 4, !tbaa !8
  br label %125, !llvm.loop !98

151:                                              ; preds = %125
  br label %214

152:                                              ; preds = %118
  %153 = load ptr, ptr %7, align 8, !tbaa !76
  %154 = getelementptr inbounds i8, ptr %153, i64 1
  %155 = load i8, ptr %154, align 1, !tbaa !91
  %156 = sext i8 %155 to i32
  %157 = icmp eq i32 %156, 48
  br i1 %157, label %158, label %186

158:                                              ; preds = %152
  store i32 0, ptr %9, align 4, !tbaa !8
  br label %159

159:                                              ; preds = %182, %158
  %160 = load i32, ptr %9, align 4, !tbaa !8
  %161 = load ptr, ptr %2, align 8, !tbaa !14
  %162 = getelementptr inbounds nuw %struct.Abc_ManScl_t_, ptr %161, i32 0, i32 3
  %163 = load i32, ptr %162, align 4, !tbaa !54
  %164 = icmp slt i32 %160, %163
  br i1 %164, label %165, label %185

165:                                              ; preds = %159
  %166 = load ptr, ptr %4, align 8, !tbaa !58
  %167 = load i32, ptr %9, align 4, !tbaa !8
  %168 = sext i32 %167 to i64
  %169 = getelementptr inbounds i32, ptr %166, i64 %168
  %170 = load i32, ptr %169, align 4, !tbaa !8
  %171 = load ptr, ptr %5, align 8, !tbaa !58
  %172 = load i32, ptr %9, align 4, !tbaa !8
  %173 = sext i32 %172 to i64
  %174 = getelementptr inbounds i32, ptr %171, i64 %173
  %175 = load i32, ptr %174, align 4, !tbaa !8
  %176 = xor i32 %175, -1
  %177 = and i32 %170, %176
  %178 = load ptr, ptr %6, align 8, !tbaa !58
  %179 = load i32, ptr %9, align 4, !tbaa !8
  %180 = sext i32 %179 to i64
  %181 = getelementptr inbounds i32, ptr %178, i64 %180
  store i32 %177, ptr %181, align 4, !tbaa !8
  br label %182

182:                                              ; preds = %165
  %183 = load i32, ptr %9, align 4, !tbaa !8
  %184 = add nsw i32 %183, 1
  store i32 %184, ptr %9, align 4, !tbaa !8
  br label %159, !llvm.loop !99

185:                                              ; preds = %159
  br label %213

186:                                              ; preds = %152
  store i32 0, ptr %9, align 4, !tbaa !8
  br label %187

187:                                              ; preds = %209, %186
  %188 = load i32, ptr %9, align 4, !tbaa !8
  %189 = load ptr, ptr %2, align 8, !tbaa !14
  %190 = getelementptr inbounds nuw %struct.Abc_ManScl_t_, ptr %189, i32 0, i32 3
  %191 = load i32, ptr %190, align 4, !tbaa !54
  %192 = icmp slt i32 %188, %191
  br i1 %192, label %193, label %212

193:                                              ; preds = %187
  %194 = load ptr, ptr %4, align 8, !tbaa !58
  %195 = load i32, ptr %9, align 4, !tbaa !8
  %196 = sext i32 %195 to i64
  %197 = getelementptr inbounds i32, ptr %194, i64 %196
  %198 = load i32, ptr %197, align 4, !tbaa !8
  %199 = load ptr, ptr %5, align 8, !tbaa !58
  %200 = load i32, ptr %9, align 4, !tbaa !8
  %201 = sext i32 %200 to i64
  %202 = getelementptr inbounds i32, ptr %199, i64 %201
  %203 = load i32, ptr %202, align 4, !tbaa !8
  %204 = and i32 %198, %203
  %205 = load ptr, ptr %6, align 8, !tbaa !58
  %206 = load i32, ptr %9, align 4, !tbaa !8
  %207 = sext i32 %206 to i64
  %208 = getelementptr inbounds i32, ptr %205, i64 %207
  store i32 %204, ptr %208, align 4, !tbaa !8
  br label %209

209:                                              ; preds = %193
  %210 = load i32, ptr %9, align 4, !tbaa !8
  %211 = add nsw i32 %210, 1
  store i32 %211, ptr %9, align 4, !tbaa !8
  br label %187, !llvm.loop !100

212:                                              ; preds = %187
  br label %213

213:                                              ; preds = %212, %185
  br label %214

214:                                              ; preds = %213, %151
  br label %215

215:                                              ; preds = %214, %117
  br label %216

216:                                              ; preds = %215
  %217 = load i32, ptr %8, align 4, !tbaa !8
  %218 = add nsw i32 %217, 1
  store i32 %218, ptr %8, align 4, !tbaa !8
  br label %39, !llvm.loop !101

219:                                              ; preds = %52
  %220 = load ptr, ptr %6, align 8, !tbaa !58
  call void @llvm.lifetime.end.p0(i64 4, ptr %9) #9
  call void @llvm.lifetime.end.p0(i64 4, ptr %8) #9
  call void @llvm.lifetime.end.p0(i64 8, ptr %7) #9
  call void @llvm.lifetime.end.p0(i64 8, ptr %6) #9
  call void @llvm.lifetime.end.p0(i64 8, ptr %5) #9
  call void @llvm.lifetime.end.p0(i64 8, ptr %4) #9
  call void @llvm.lifetime.end.p0(i64 8, ptr %3) #9
  ret ptr %220
}