; Function Attrs: nofree norecurse nosync nounwind memory(readwrite, inaccessiblemem: none) uwtable
define ptr @Abc_NodeSuperChoiceTruth(ptr noundef readonly captures(none) %0) local_unnamed_addr #4 {
  %2 = getelementptr inbounds nuw i8, ptr %0, i64 16
  %3 = load ptr, ptr %2, align 8, !tbaa !67
  %4 = getelementptr i8, ptr %3, i64 4
  %.val65 = load i32, ptr %4, align 4, !tbaa !24
  %5 = icmp sgt i32 %.val65, 0
  br i1 %5, label %.lr.ph, label %.critedge.preheader

.lr.ph:                                           ; preds = %1
  %6 = getelementptr i8, ptr %3, i64 8
  %.val66 = load ptr, ptr %6, align 8, !tbaa !26
  %7 = getelementptr inbounds nuw i8, ptr %0, i64 104
  %8 = load ptr, ptr %7, align 8, !tbaa !36
  %wide.trip.count = zext nneg i32 %.val65 to i64
  br label %17

.critedge.preheader:                              ; preds = %17, %1
  %9 = getelementptr inbounds nuw i8, ptr %0, i64 24
  %10 = load ptr, ptr %9, align 8, !tbaa !57
  %11 = getelementptr i8, ptr %10, i64 4
  %.val87 = load i32, ptr %11, align 4, !tbaa !24
  %12 = icmp sgt i32 %.val87, 0
  br i1 %12, label %.lr.ph89, label %.critedge2

.lr.ph89:                                         ; preds = %.critedge.preheader
  %13 = getelementptr i8, ptr %10, i64 8
  %.val67 = load ptr, ptr %13, align 8, !tbaa !26
  %14 = getelementptr inbounds nuw i8, ptr %0, i64 112
  %15 = load ptr, ptr %14, align 8, !tbaa !37
  %16 = getelementptr inbounds nuw i8, ptr %0, i64 12
  br label %23

17:                                               ; preds = %.lr.ph, %17
  %indvars.iv = phi i64 [ 0, %.lr.ph ], [ %indvars.iv.next, %17 ]
  %18 = getelementptr inbounds nuw ptr, ptr %.val66, i64 %indvars.iv
  %19 = load ptr, ptr %18, align 8, !tbaa !27
  %20 = getelementptr inbounds nuw ptr, ptr %8, i64 %indvars.iv
  %21 = load ptr, ptr %20, align 8, !tbaa !39
  %22 = getelementptr inbounds nuw i8, ptr %19, i64 8
  store ptr %21, ptr %22, align 8, !tbaa !106
  %indvars.iv.next = add nuw nsw i64 %indvars.iv, 1
  %exitcond.not = icmp eq i64 %indvars.iv.next, %wide.trip.count
  br i1 %exitcond.not, label %.critedge.preheader, label %17, !llvm.loop !108

23:                                               ; preds = %.lr.ph89, %.critedge
  %indvars.iv106 = phi i64 [ 0, %.lr.ph89 ], [ %indvars.iv.next107, %.critedge ]
  %24 = getelementptr inbounds nuw ptr, ptr %.val67, i64 %indvars.iv106
  %25 = load ptr, ptr %24, align 8, !tbaa !27
  %26 = getelementptr inbounds nuw ptr, ptr %15, i64 %indvars.iv106
  %27 = load ptr, ptr %26, align 8, !tbaa !39
  %28 = getelementptr inbounds nuw i8, ptr %25, i64 8
  store ptr %27, ptr %28, align 8, !tbaa !106
  %.val68 = load ptr, ptr %25, align 8, !tbaa !64
  %29 = getelementptr i8, ptr %25, i64 32
  %.val69 = load ptr, ptr %29, align 8, !tbaa !96
  %30 = getelementptr i8, ptr %.val68, i64 32
  %.val68.val = load ptr, ptr %30, align 8, !tbaa !48
  %.val69.val = load i32, ptr %.val69, align 4, !tbaa !40
  %31 = getelementptr i8, ptr %.val68.val, i64 8
  %.val68.val.val = load ptr, ptr %31, align 8, !tbaa !26
  %32 = sext i32 %.val69.val to i64
  %33 = getelementptr inbounds ptr, ptr %.val68.val.val, i64 %32
  %34 = load ptr, ptr %33, align 8, !tbaa !27
  %35 = getelementptr inbounds nuw i8, ptr %34, i64 8
  %36 = load ptr, ptr %35, align 8, !tbaa !106
  %37 = getelementptr i8, ptr %.val69, i64 4
  %.val71.val = load i32, ptr %37, align 4, !tbaa !40
  %38 = sext i32 %.val71.val to i64
  %39 = getelementptr inbounds ptr, ptr %.val68.val.val, i64 %38
  %40 = load ptr, ptr %39, align 8, !tbaa !27
  %41 = getelementptr inbounds nuw i8, ptr %40, i64 8
  %42 = load ptr, ptr %41, align 8, !tbaa !106
  %43 = getelementptr inbounds nuw i8, ptr %25, i64 56
  %44 = load ptr, ptr %43, align 8, !tbaa !82
  %45 = load i8, ptr %44, align 1, !tbaa !82
  %46 = icmp eq i8 %45, 48
  %47 = getelementptr inbounds nuw i8, ptr %44, i64 1
  %48 = load i8, ptr %47, align 1, !tbaa !82
  %49 = icmp eq i8 %48, 48
  %50 = load i32, ptr %16, align 4, !tbaa !35
  %51 = icmp sgt i32 %50, 0
  br i1 %46, label %52, label %72

52:                                               ; preds = %23
  br i1 %49, label %.preheader, label %.preheader72

.preheader72:                                     ; preds = %52
  br i1 %51, label %.lr.ph84, label %.critedge

.preheader:                                       ; preds = %52
  br i1 %51, label %.lr.ph86, label %.critedge

.lr.ph86:                                         ; preds = %.preheader, %.lr.ph86
  %indvars.iv103 = phi i64 [ %indvars.iv.next104, %.lr.ph86 ], [ 0, %.preheader ]
  %53 = getelementptr inbounds nuw i32, ptr %36, i64 %indvars.iv103
  %54 = load i32, ptr %53, align 4, !tbaa !40
  %55 = getelementptr inbounds nuw i32, ptr %42, i64 %indvars.iv103
  %56 = load i32, ptr %55, align 4, !tbaa !40
  %.demorgan = or i32 %56, %54
  %57 = xor i32 %.demorgan, -1
  %58 = getelementptr inbounds nuw i32, ptr %27, i64 %indvars.iv103
  store i32 %57, ptr %58, align 4, !tbaa !40
  %indvars.iv.next104 = add nuw nsw i64 %indvars.iv103, 1
  %59 = load i32, ptr %16, align 4, !tbaa !35
  %60 = sext i32 %59 to i64
  %61 = icmp slt i64 %indvars.iv.next104, %60
  br i1 %61, label %.lr.ph86, label %.critedge, !llvm.loop !109

.lr.ph84:                                         ; preds = %.preheader72, %.lr.ph84
  %indvars.iv100 = phi i64 [ %indvars.iv.next101, %.lr.ph84 ], [ 0, %.preheader72 ]
  %62 = getelementptr inbounds nuw i32, ptr %36, i64 %indvars.iv100
  %63 = load i32, ptr %62, align 4, !tbaa !40
  %64 = xor i32 %63, -1
  %65 = getelementptr inbounds nuw i32, ptr %42, i64 %indvars.iv100
  %66 = load i32, ptr %65, align 4, !tbaa !40
  %67 = and i32 %66, %64
  %68 = getelementptr inbounds nuw i32, ptr %27, i64 %indvars.iv100
  store i32 %67, ptr %68, align 4, !tbaa !40
  %indvars.iv.next101 = add nuw nsw i64 %indvars.iv100, 1
  %69 = load i32, ptr %16, align 4, !tbaa !35
  %70 = sext i32 %69 to i64
  %71 = icmp slt i64 %indvars.iv.next101, %70
  br i1 %71, label %.lr.ph84, label %.critedge, !llvm.loop !110

72:                                               ; preds = %23
  br i1 %49, label %.preheader74, label %.preheader76

.preheader76:                                     ; preds = %72
  br i1 %51, label %.lr.ph80, label %.critedge

.preheader74:                                     ; preds = %72
  br i1 %51, label %.lr.ph82, label %.critedge

.lr.ph82:                                         ; preds = %.preheader74, %.lr.ph82
  %indvars.iv97 = phi i64 [ %indvars.iv.next98, %.lr.ph82 ], [ 0, %.preheader74 ]
  %73 = getelementptr inbounds nuw i32, ptr %36, i64 %indvars.iv97
  %74 = load i32, ptr %73, align 4, !tbaa !40
  %75 = getelementptr inbounds nuw i32, ptr %42, i64 %indvars.iv97
  %76 = load i32, ptr %75, align 4, !tbaa !40
  %77 = xor i32 %76, -1
  %78 = and i32 %74, %77
  %79 = getelementptr inbounds nuw i32, ptr %27, i64 %indvars.iv97
  store i32 %78, ptr %79, align 4, !tbaa !40
  %indvars.iv.next98 = add nuw nsw i64 %indvars.iv97, 1
  %80 = load i32, ptr %16, align 4, !tbaa !35
  %81 = sext i32 %80 to i64
  %82 = icmp slt i64 %indvars.iv.next98, %81
  br i1 %82, label %.lr.ph82, label %.critedge, !llvm.loop !111

.lr.ph80:                                         ; preds = %.preheader76, %.lr.ph80
  %indvars.iv94 = phi i64 [ %indvars.iv.next95, %.lr.ph80 ], [ 0, %.preheader76 ]
  %83 = getelementptr inbounds nuw i32, ptr %36, i64 %indvars.iv94
  %84 = load i32, ptr %83, align 4, !tbaa !40
  %85 = getelementptr inbounds nuw i32, ptr %42, i64 %indvars.iv94
  %86 = load i32, ptr %85, align 4, !tbaa !40
  %87 = and i32 %86, %84
  %88 = getelementptr inbounds nuw i32, ptr %27, i64 %indvars.iv94
  store i32 %87, ptr %88, align 4, !tbaa !40
  %indvars.iv.next95 = add nuw nsw i64 %indvars.iv94, 1
  %89 = load i32, ptr %16, align 4, !tbaa !35
  %90 = sext i32 %89 to i64
  %91 = icmp slt i64 %indvars.iv.next95, %90
  br i1 %91, label %.lr.ph80, label %.critedge, !llvm.loop !112

.critedge:                                        ; preds = %.lr.ph80, %.lr.ph82, %.lr.ph84, %.lr.ph86, %.preheader76, %.preheader74, %.preheader72, %.preheader
  %indvars.iv.next107 = add nuw nsw i64 %indvars.iv106, 1
  %.val = load i32, ptr %11, align 4, !tbaa !24
  %92 = sext i32 %.val to i64
  %93 = icmp slt i64 %indvars.iv.next107, %92
  br i1 %93, label %23, label %.critedge2, !llvm.loop !113

.critedge2:                                       ; preds = %.critedge, %.critedge.preheader
  %.064.lcssa = phi ptr [ null, %.critedge.preheader ], [ %27, %.critedge ]
  ret ptr %.064.lcssa
}